target datalayout = "e-m:e-p270:32:32-p271:32:32-p272:64:64-i64:64-i128:128-f80:128-n8:16:32:64-S128"
target triple = "x86_64-pc-linux-gnu"

; Function Attrs: nounwind uwtable
define ptr @ossl_quic_wire_encode_transport_param_bytes(ptr noundef %0, i64 noundef %1, ptr noundef %2, i64 noundef %3) #0 {
  %5 = alloca ptr, align 8
  %6 = alloca ptr, align 8
  %7 = alloca i64, align 8
  %8 = alloca ptr, align 8
  %9 = alloca i64, align 8
  %10 = alloca ptr, align 8
  %11 = alloca i32, align 4
  store ptr %0, ptr %6, align 8, !tbaa !21
  store i64 %1, ptr %7, align 8, !tbaa !8
  store ptr %2, ptr %8, align 8, !tbaa !47
  store i64 %3, ptr %9, align 8, !tbaa !8
  call void @llvm.lifetime.start.p0(i64 8, ptr %10) #7
  store ptr null, ptr %10, align 8, !tbaa !47
  %12 = load ptr, ptr %6, align 8, !tbaa !21
  %13 = load i64, ptr %7, align 8, !tbaa !8
  %14 = call i32 @WPACKET_quic_write_vlint(ptr noundef %12, i64 noundef %13)
  %15 = icmp ne i32 %14, 0
  br i1 %15, label %16, label %21

16:                                               ; preds = %4
  %17 = load ptr, ptr %6, align 8, !tbaa !21
  %18 = load i64, ptr %9, align 8, !tbaa !8
  %19 = call i32 @WPACKET_quic_write_vlint(ptr noundef %17, i64 noundef %18)
  %20 = icmp ne i32 %19, 0
  br i1 %20, label %22, label %21

21:                                               ; preds = %16, %4
  store ptr null, ptr %5, align 8
  store i32 1, ptr %11, align 4
  br label %44

22:                                               ; preds = %16
  %23 = load i64, ptr %9, align 8, !tbaa !8
  %24 = icmp eq i64 %23, 0
  br i1 %24, label %25, label %28

25:                                               ; preds = %22
  %26 = load ptr, ptr %6, align 8, !tbaa !21
  %27 = call ptr @WPACKET_get_curr(ptr noundef %26)
  store ptr %27, ptr %10, align 8, !tbaa !47
  br label %35

28:                                               ; preds = %22
  %29 = load ptr, ptr %6, align 8, !tbaa !21
  %30 = load i64, ptr %9, align 8, !tbaa !8
  %31 = call i32 @WPACKET_allocate_bytes(ptr noundef %29, i64 noundef %30, ptr noundef %10)
  %32 = icmp ne i32 %31, 0
  br i1 %32, label %34, label %33

33:                                               ; preds = %28
  store ptr null, ptr %5, align 8
  store i32 1, ptr %11, align 4
  br label %44

34:                                               ; preds = %28
  br label %35

35:                                               ; preds = %34, %25
  %36 = load ptr, ptr %8, align 8, !tbaa !47
  %37 = icmp ne ptr %36, null
  br i1 %37, label %38, label %42

38:                                               ; preds = %35
  %39 = load ptr, ptr %10, align 8, !tbaa !47
  %40 = load ptr, ptr %8, align 8, !tbaa !47
  %41 = load i64, ptr %9, align 8, !tbaa !8
  call void @llvm.memcpy.p0.p0.i64(ptr align 1 %39, ptr align 1 %40, i64 %41, i1 false)
  br label %42

42:                                               ; preds = %38, %35
  %43 = load ptr, ptr %10, align 8, !tbaa !47
  store ptr %43, ptr %5, align 8
  store i32 1, ptr %11, align 4
  br label %44

44:                                               ; preds = %42, %33, %21
  call void @llvm.lifetime.end.p0(i64 8, ptr %10) #7
  %45 = load ptr, ptr %5, align 8
  ret ptr %45
}