; Function Attrs: nounwind uwtable
define ptr @ossl_quic_wire_encode_transport_param_bytes(ptr noundef %0, i64 noundef %1, ptr noundef readonly captures(address_is_null) %2, i64 noundef %3) local_unnamed_addr #2 {
  %5 = alloca ptr, align 8
  call void @llvm.lifetime.start.p0(i64 8, ptr nonnull %5) #12
  store ptr null, ptr %5, align 8, !tbaa !33
  %6 = tail call i32 @WPACKET_quic_write_vlint(ptr noundef %0, i64 noundef %1) #12
  %.not = icmp eq i32 %6, 0
  br i1 %.not, label %17, label %7

7:                                                ; preds = %4
  %8 = tail call i32 @WPACKET_quic_write_vlint(ptr noundef %0, i64 noundef %3) #12
  %.not13 = icmp eq i32 %8, 0
  br i1 %.not13, label %17, label %9

9:                                                ; preds = %7
  %10 = icmp eq i64 %3, 0
  br i1 %10, label %11, label %13

11:                                               ; preds = %9
  %12 = tail call ptr @WPACKET_get_curr(ptr noundef %0) #12
  store ptr %12, ptr %5, align 8, !tbaa !33
  br label %15

13:                                               ; preds = %9
  %14 = call i32 @WPACKET_allocate_bytes(ptr noundef %0, i64 noundef %3, ptr noundef nonnull %5) #12
  %.not14 = icmp eq i32 %14, 0
  br i1 %.not14, label %17, label %._crit_edge

._crit_edge:                                      ; preds = %13
  %.pre16.pre = load ptr, ptr %5, align 8, !tbaa !33
  br label %15

15:                                               ; preds = %._crit_edge, %11
  %.pre16 = phi ptr [ %.pre16.pre, %._crit_edge ], [ %12, %11 ]
  %.not15 = icmp eq ptr %2, null
  br i1 %.not15, label %17, label %16

16:                                               ; preds = %15
  call void @llvm.memcpy.p0.p0.i64(ptr align 1 %.pre16, ptr nonnull align 1 %2, i64 %3, i1 false)
  %.pre = load ptr, ptr %5, align 8, !tbaa !33
  br label %17

17:                                               ; preds = %15, %16, %13, %4, %7
  %.0 = phi ptr [ null, %7 ], [ null, %4 ], [ null, %13 ], [ %.pre, %16 ], [ %.pre16, %15 ]
  call void @llvm.lifetime.end.p0(i64 8, ptr nonnull %5) #12
  ret ptr %.0
}